; Function Attrs: mustprogress nounwind uwtable
define dso_local noundef zeroext i1 @_ZN5clang8comments4Sema22resolveTParamReferenceEN4llvm9StringRefEPKNS_21TemplateParameterListEPNS2_15SmallVectorImplIjEE(ptr nocapture noundef nonnull readnone align 8 dereferenceable(168) %0, ptr nocapture readonly %1, i64 %2, ptr noundef readonly %3, ptr noundef nonnull %4) local_unnamed_addr #0 align 2 {
  %6 = tail call noundef i64 @_ZNK4llvm15SmallVectorBaseIjE4sizeEv(ptr noundef nonnull align 8 dereferenceable(16) %4) #17
  %7 = getelementptr inbounds nuw i8, ptr %4, i64 8
  store i32 0, ptr %7, align 8
  %.not = icmp eq ptr %3, null
  br i1 %.not, label %10, label %8

8:                                                ; preds = %5
  %9 = tail call fastcc noundef zeroext i1 @_ZN5clang8comments12_GLOBAL__N_128ResolveTParamReferenceHelperEN4llvm9StringRefEPKNS_21TemplateParameterListEPNS2_15SmallVectorImplIjEE(ptr %1, i64 %2, ptr noundef nonnull %3, ptr noundef nonnull %4)
  br label %10

10:                                               ; preds = %5, %8
  %.0 = phi i1 [ %9, %8 ], [ false, %5 ]
  ret i1 %.0
}